target datalayout = "e-m:e-p270:32:32-p271:32:32-p272:64:64-i64:64-i128:128-f80:128-n8:16:32:64-S128"
target triple = "x86_64-pc-linux-gnu"

; Function Attrs: nounwind uwtable
define i32 @ff_mov_lang_to_iso639(i32 noundef %0, ptr noundef %1) #0 {
  %3 = alloca i32, align 4
  %4 = alloca i32, align 4
  %5 = alloca ptr, align 8
  %6 = alloca i32, align 4
  %7 = alloca i32, align 4
  store i32 %0, ptr %4, align 4, !tbaa !9
  store ptr %1, ptr %5, align 8, !tbaa !4
  call void @llvm.lifetime.start.p0(i64 4, ptr %6) #6
  %8 = load ptr, ptr %5, align 8, !tbaa !4
  call void @llvm.memset.p0.i64(ptr align 1 %8, i8 0, i64 4, i1 false)
  %9 = load i32, ptr %4, align 4, !tbaa !9
  %10 = icmp uge i32 %9, 1024
  br i1 %10, label %11, label %33

11:                                               ; preds = %2
  %12 = load i32, ptr %4, align 4, !tbaa !9
  %13 = icmp ne i32 %12, 32767
  br i1 %13, label %14, label %33

14:                                               ; preds = %11
  store i32 2, ptr %6, align 4, !tbaa !9
  br label %15

15:                                               ; preds = %29, %14
  %16 = load i32, ptr %6, align 4, !tbaa !9
  %17 = icmp sge i32 %16, 0
  br i1 %17, label %18, label %32

18:                                               ; preds = %15
  %19 = load i32, ptr %4, align 4, !tbaa !9
  %20 = and i32 %19, 31
  %21 = add i32 96, %20
  %22 = trunc i32 %21 to i8
  %23 = load ptr, ptr %5, align 8, !tbaa !4
  %24 = load i32, ptr %6, align 4, !tbaa !9
  %25 = sext i32 %24 to i64
  %26 = getelementptr inbounds i8, ptr %23, i64 %25
  store i8 %22, ptr %26, align 1, !tbaa !11
  %27 = load i32, ptr %4, align 4, !tbaa !9
  %28 = lshr i32 %27, 5
  store i32 %28, ptr %4, align 4, !tbaa !9
  br label %29

29:                                               ; preds = %18
  %30 = load i32, ptr %6, align 4, !tbaa !9
  %31 = add nsw i32 %30, -1
  store i32 %31, ptr %6, align 4, !tbaa !9
  br label %15, !llvm.loop !15

32:                                               ; preds = %15
  store i32 1, ptr %3, align 4
  store i32 1, ptr %7, align 4
  br label %52

33:                                               ; preds = %11, %2
  %34 = load i32, ptr %4, align 4, !tbaa !9
  %35 = zext i32 %34 to i64
  %36 = icmp uge i64 %35, 139
  br i1 %36, label %37, label %38

37:                                               ; preds = %33
  store i32 0, ptr %3, align 4
  store i32 1, ptr %7, align 4
  br label %52

38:                                               ; preds = %33
  %39 = load i32, ptr %4, align 4, !tbaa !9
  %40 = zext i32 %39 to i64
  %41 = getelementptr inbounds nuw [139 x [4 x i8]], ptr @mov_mdhd_language_map, i64 0, i64 %40
  %42 = getelementptr inbounds [4 x i8], ptr %41, i64 0, i64 0
  %43 = load i8, ptr %42, align 4, !tbaa !11
  %44 = icmp ne i8 %43, 0
  br i1 %44, label %46, label %45

45:                                               ; preds = %38
  store i32 0, ptr %3, align 4
  store i32 1, ptr %7, align 4
  br label %52

46:                                               ; preds = %38
  %47 = load ptr, ptr %5, align 8, !tbaa !4
  %48 = load i32, ptr %4, align 4, !tbaa !9
  %49 = zext i32 %48 to i64
  %50 = getelementptr inbounds nuw [139 x [4 x i8]], ptr @mov_mdhd_language_map, i64 0, i64 %49
  %51 = getelementptr inbounds [4 x i8], ptr %50, i64 0, i64 0
  call void @llvm.memcpy.p0.p0.i64(ptr align 1 %47, ptr align 4 %51, i64 4, i1 false)
  store i32 1, ptr %3, align 4
  store i32 1, ptr %7, align 4
  br label %52

52:                                               ; preds = %46, %45, %37, %32
  call void @llvm.lifetime.end.p0(i64 4, ptr %6) #6
  %53 = load i32, ptr %3, align 4
  ret i32 %53
}