; Function Attrs: nofree norecurse nosync nounwind memory(argmem: write) uwtable
define range(i32 0, 2) i32 @ff_mov_lang_to_iso639(i32 noundef %0, ptr noundef writeonly captures(none) initializes((0, 4)) %1) local_unnamed_addr #3 {
  store i32 0, ptr %1, align 1
  %3 = icmp ugt i32 %0, 1023
  %4 = icmp ne i32 %0, 32767
  %or.cond = and i1 %3, %4
  br i1 %or.cond, label %.preheader, label %10

.preheader:                                       ; preds = %2, %.preheader
  %indvars.iv = phi i64 [ %indvars.iv.next, %.preheader ], [ 2, %2 ]
  %.01518 = phi i32 [ %9, %.preheader ], [ %0, %2 ]
  %5 = trunc i32 %.01518 to i8
  %6 = and i8 %5, 31
  %7 = or disjoint i8 %6, 96
  %8 = getelementptr inbounds nuw i8, ptr %1, i64 %indvars.iv
  store i8 %7, ptr %8, align 1, !tbaa !4
  %9 = lshr i32 %.01518, 5
  %indvars.iv.next = add nsw i64 %indvars.iv, -1
  %.not21 = icmp eq i64 %indvars.iv, 0
  br i1 %.not21, label %.loopexit, label %.preheader, !llvm.loop !10

10:                                               ; preds = %2
  %11 = icmp samesign ugt i32 %0, 138
  br i1 %11, label %.loopexit, label %12

12:                                               ; preds = %10
  %13 = zext nneg i32 %0 to i64
  %14 = getelementptr inbounds nuw [139 x [4 x i8]], ptr @mov_mdhd_language_map, i64 0, i64 %13
  %15 = load i8, ptr %14, align 4, !tbaa !4
  %.not = icmp eq i8 %15, 0
  br i1 %.not, label %.loopexit, label %16

16:                                               ; preds = %12
  %17 = load i32, ptr %14, align 4
  store i32 %17, ptr %1, align 1
  br label %.loopexit

.loopexit:                                        ; preds = %.preheader, %12, %10, %16
  %.014 = phi i32 [ 1, %16 ], [ 0, %10 ], [ 0, %12 ], [ 1, %.preheader ]
  ret i32 %.014
}